target datalayout = "e-m:e-p270:32:32-p271:32:32-p272:64:64-i64:64-i128:128-f80:128-n8:16:32:64-S128"
target triple = "x86_64-pc-linux-gnu"

@object_access_hook = external global ptr, align 8

; Function Attrs: nounwind uwtable
define dso_local i32 @inv_create(i32 noundef %0) #0 {
  %2 = alloca i32, align 4
  %3 = alloca i32, align 4
  store i32 %0, ptr %2, align 4
  call void @llvm.lifetime.start.p0(i64 4, ptr %3) #7
  %4 = load i32, ptr %2, align 4
  %5 = call i32 @LargeObjectCreate(i32 noundef %4)
  store i32 %5, ptr %3, align 4
  %6 = load i32, ptr %3, align 4
  %7 = call i32 @GetUserId()
  call void @recordDependencyOnOwner(i32 noundef 2613, i32 noundef %6, i32 noundef %7)
  br label %8

8:                                                ; preds = %1
  %9 = load ptr, ptr @object_access_hook, align 8
  %10 = icmp ne ptr %9, null
  br i1 %10, label %11, label %13

11:                                               ; preds = %8
  %12 = load i32, ptr %3, align 4
  call void @RunObjectPostCreateHook(i32 noundef 2613, i32 noundef %12, i32 noundef 0, i1 noundef zeroext false)
  br label %13

13:                                               ; preds = %11, %8
  br label %14

14:                                               ; preds = %13
  br label %15

15:                                               ; preds = %14
  call void @CommandCounterIncrement()
  %16 = load i32, ptr %3, align 4
  call void @llvm.lifetime.end.p0(i64 4, ptr %3) #7
  ret i32 %16
}