; Function Attrs: nounwind uwtable
define dso_local i32 @inv_create(i32 noundef %0) local_unnamed_addr #0 {
  %2 = tail call i32 @LargeObjectCreate(i32 noundef %0) #9
  %3 = tail call i32 @GetUserId() #9
  tail call void @recordDependencyOnOwner(i32 noundef 2613, i32 noundef %2, i32 noundef %3) #9
  %4 = load ptr, ptr @object_access_hook, align 8
  %.not = icmp eq ptr %4, null
  br i1 %.not, label %6, label %5

5:                                                ; preds = %1
  tail call void @RunObjectPostCreateHook(i32 noundef 2613, i32 noundef %2, i32 noundef 0, i1 noundef zeroext false) #9
  br label %6

6:                                                ; preds = %5, %1
  tail call void @CommandCounterIncrement() #9
  ret i32 %2
}